; Function Attrs: nounwind uwtable
define hidden i32 @mbedtls_hkdf(ptr noundef %0, ptr noundef %1, i64 noundef %2, ptr noundef %3, i64 noundef %4, ptr noundef %5, i64 noundef %6, ptr noundef %7, i64 noundef %8) local_unnamed_addr #0 {
  %10 = alloca [64 x i8], align 16
  %11 = alloca [64 x i8], align 16
  call void @llvm.lifetime.start.p0(i64 64, ptr nonnull %11) #5
  call void @llvm.lifetime.start.p0(i64 64, ptr nonnull %10) #5
  call void @llvm.memset.p0.i64(ptr noundef nonnull align 16 dereferenceable(64) %10, i8 0, i64 64, i1 false)
  %12 = icmp eq ptr %1, null
  br i1 %12, label %13, label %mbedtls_hkdf_extract.exit

13:                                               ; preds = %9
  %.not.i = icmp eq i64 %2, 0
  br i1 %.not.i, label %14, label %mbedtls_hkdf_extract.exit.thread

14:                                               ; preds = %13
  %15 = tail call zeroext i8 @mbedtls_md_get_size(ptr noundef %0) #5
  %16 = icmp eq i8 %15, 0
  br i1 %16, label %mbedtls_hkdf_extract.exit.thread, label %17

17:                                               ; preds = %14
  %18 = zext i8 %15 to i64
  br label %mbedtls_hkdf_extract.exit

mbedtls_hkdf_extract.exit.thread:                 ; preds = %13, %14
  call void @llvm.lifetime.end.p0(i64 64, ptr nonnull %10) #5
  br label %25

mbedtls_hkdf_extract.exit:                        ; preds = %9, %17
  %.015.i = phi i64 [ %18, %17 ], [ %2, %9 ]
  %.013.i = phi ptr [ %10, %17 ], [ %1, %9 ]
  %19 = call i32 @mbedtls_md_hmac(ptr noundef %0, ptr noundef nonnull %.013.i, i64 noundef %.015.i, ptr noundef %3, i64 noundef %4, ptr noundef nonnull %11) #5
  call void @llvm.lifetime.end.p0(i64 64, ptr nonnull %10) #5
  %20 = icmp eq i32 %19, 0
  br i1 %20, label %21, label %25

21:                                               ; preds = %mbedtls_hkdf_extract.exit
  %22 = call zeroext i8 @mbedtls_md_get_size(ptr noundef %0) #5
  %23 = zext i8 %22 to i64
  %24 = call i32 @mbedtls_hkdf_expand(ptr noundef %0, ptr noundef nonnull %11, i64 noundef %23, ptr noundef %5, i64 noundef %6, ptr noundef %7, i64 noundef %8)
  br label %25

25:                                               ; preds = %mbedtls_hkdf_extract.exit.thread, %21, %mbedtls_hkdf_extract.exit
  %.0 = phi i32 [ %24, %21 ], [ %19, %mbedtls_hkdf_extract.exit ], [ -24448, %mbedtls_hkdf_extract.exit.thread ]
  call void @mbedtls_platform_zeroize(ptr noundef nonnull %11, i64 noundef 64) #5
  call void @llvm.lifetime.end.p0(i64 64, ptr nonnull %11) #5
  ret i32 %.0
}